; ModuleID = '24/756.c'
source_filename = "24/756.c"
target datalayout = "e-m:e-p270:32:32-p271:32:32-p272:64:64-i64:64-f80:128-n8:16:32:64-S128"
target triple = "x86_64-pc-linux-gnu"

@.str = private unnamed_addr constant [3 x i8] c"%s\00", align 1
@.str.1 = private unnamed_addr constant [4 x i8] c"%s\0A\00", align 1

; Function Attrs: noinline nounwind uwtable
define dso_local void @main() #0 {
  %1 = alloca i32, align 4
  %2 = alloca i32, align 4
  %3 = alloca i32, align 4
  %4 = alloca [50 x [20 x i8]], align 16
  %5 = alloca [50 x i32], align 16
  %6 = alloca [20 x i8], align 16
  %7 = alloca [20 x i8], align 16
  store i32 1, i32* %1, align 4
  store i32 1000, i32* %2, align 4
  store i32 0, i32* %3, align 4
  br label %8

8:                                                ; preds = %59, %0
  %9 = load i32, i32* %3, align 4
  %10 = sext i32 %9 to i64
  %11 = getelementptr inbounds [50 x [20 x i8]], [50 x [20 x i8]]* %4, i64 0, i64 %10
  %12 = call i32 (i8*, ...) @__isoc99_scanf(i8* getelementptr inbounds ([3 x i8], [3 x i8]* @.str, i64 0, i64 0), [20 x i8]* %11)
  %13 = icmp ne i32 %12, -1
  br i1 %13, label %14, label %62

14:                                               ; preds = %8
  %15 = load i32, i32* %3, align 4
  %16 = sext i32 %15 to i64
  %17 = getelementptr inbounds [50 x [20 x i8]], [50 x [20 x i8]]* %4, i64 0, i64 %16
  %18 = getelementptr inbounds [20 x i8], [20 x i8]* %17, i64 0, i64 0
  %19 = call i64 @strlen(i8* %18) #4
  %20 = trunc i64 %19 to i32
  %21 = load i32, i32* %3, align 4
  %22 = sext i32 %21 to i64
  %23 = getelementptr inbounds [50 x i32], [50 x i32]* %5, i64 0, i64 %22
  store i32 %20, i32* %23, align 4
  %24 = load i32, i32* %3, align 4
  %25 = sext i32 %24 to i64
  %26 = getelementptr inbounds [50 x i32], [50 x i32]* %5, i64 0, i64 %25
  %27 = load i32, i32* %26, align 4
  %28 = load i32, i32* %1, align 4
  %29 = icmp sgt i32 %27, %28
  br i1 %29, label %30, label %41

30:                                               ; preds = %14
  %31 = getelementptr inbounds [20 x i8], [20 x i8]* %6, i64 0, i64 0
  %32 = load i32, i32* %3, align 4
  %33 = sext i32 %32 to i64
  %34 = getelementptr inbounds [50 x [20 x i8]], [50 x [20 x i8]]* %4, i64 0, i64 %33
  %35 = getelementptr inbounds [20 x i8], [20 x i8]* %34, i64 0, i64 0
  %36 = call i8* @strcpy(i8* %31, i8* %35) #5
  %37 = load i32, i32* %3, align 4
  %38 = sext i32 %37 to i64
  %39 = getelementptr inbounds [50 x i32], [50 x i32]* %5, i64 0, i64 %38
  %40 = load i32, i32* %39, align 4
  store i32 %40, i32* %1, align 4
  br label %41

41:                                               ; preds = %30, %14
  %42 = load i32, i32* %3, align 4
  %43 = sext i32 %42 to i64
  %44 = getelementptr inbounds [50 x i32], [50 x i32]* %5, i64 0, i64 %43
  %45 = load i32, i32* %44, align 4
  %46 = load i32, i32* %2, align 4
  %47 = icmp slt i32 %45, %46
  br i1 %47, label %48, label %59

48:                                               ; preds = %41
  %49 = getelementptr inbounds [20 x i8], [20 x i8]* %7, i64 0, i64 0
  %50 = load i32, i32* %3, align 4
  %51 = sext i32 %50 to i64
  %52 = getelementptr inbounds [50 x [20 x i8]], [50 x [20 x i8]]* %4, i64 0, i64 %51
  %53 = getelementptr inbounds [20 x i8], [20 x i8]* %52, i64 0, i64 0
  %54 = call i8* @strcpy(i8* %49, i8* %53) #5
  %55 = load i32, i32* %3, align 4
  %56 = sext i32 %55 to i64
  %57 = getelementptr inbounds [50 x i32], [50 x i32]* %5, i64 0, i64 %56
  %58 = load i32, i32* %57, align 4
  store i32 %58, i32* %2, align 4
  br label %59

59:                                               ; preds = %48, %41
  %60 = load i32, i32* %3, align 4
  %61 = add nsw i32 %60, 1
  store i32 %61, i32* %3, align 4
  br label %8

62:                                               ; preds = %8
  %63 = getelementptr inbounds [20 x i8], [20 x i8]* %6, i64 0, i64 0
  %64 = call i32 (i8*, ...) @printf(i8* getelementptr inbounds ([4 x i8], [4 x i8]* @.str.1, i64 0, i64 0), i8* %63)
  %65 = getelementptr inbounds [20 x i8], [20 x i8]* %7, i64 0, i64 0
  %66 = call i32 (i8*, ...) @printf(i8* getelementptr inbounds ([3 x i8], [3 x i8]* @.str, i64 0, i64 0), i8* %65)
  ret void
}

declare dso_local i32 @__isoc99_scanf(i8*, ...) #1

; Function Attrs: nounwind readonly
declare dso_local i64 @strlen(i8*) #2

; Function Attrs: nounwind
declare dso_local i8* @strcpy(i8*, i8*) #3

declare dso_local i32 @printf(i8*, ...) #1


!llvm.module.flags = !{!0}
!llvm.ident = !{!1}

!0 = !{i32 1, !"wchar_size", i32 4}
!1 = !{!"clang version 10.0.0-4ubuntu1 "}
