; ModuleID = 'source-C-CXX/23/756.c'
source_filename = "source-C-CXX/23/756.c"
target datalayout = "e-m:e-p270:32:32-p271:32:32-p272:64:64-i64:64-f80:128-n8:16:32:64-S128"
target triple = "x86_64-pc-linux-gnu"

@.str = private unnamed_addr constant [3 x i8] c"%s\00", align 1

; Function Attrs: nofree nounwind sspstrong uwtable
define dso_local void @main() local_unnamed_addr #0 {
  %1 = alloca [50 x [20 x i8]], align 16
  %2 = alloca [20 x i8], align 16
  %3 = alloca [20 x i8], align 16
  %4 = getelementptr inbounds [50 x [20 x i8]], [50 x [20 x i8]]* %1, i64 0, i64 0, i64 0
  call void @llvm.lifetime.start.p0i8(i64 1000, i8* nonnull %4) #6
  %5 = getelementptr inbounds [20 x i8], [20 x i8]* %2, i64 0, i64 0
  call void @llvm.lifetime.start.p0i8(i64 20, i8* nonnull %5) #6
  %6 = getelementptr inbounds [20 x i8], [20 x i8]* %3, i64 0, i64 0
  call void @llvm.lifetime.start.p0i8(i64 20, i8* nonnull %6) #6
  %7 = getelementptr inbounds [50 x [20 x i8]], [50 x [20 x i8]]* %1, i64 0, i64 0
  %8 = call i32 (i8*, ...) @__isoc99_scanf(i8* getelementptr inbounds ([3 x i8], [3 x i8]* @.str, i64 0, i64 0), [20 x i8]* nonnull %7)
  %9 = icmp eq i32 %8, -1
  br i1 %9, label %31, label %10

10:                                               ; preds = %0, %25
  %11 = phi i64 [ %27, %25 ], [ 0, %0 ]
  %12 = phi i32 [ %26, %25 ], [ 1000, %0 ]
  %13 = phi i32 [ %21, %25 ], [ 1, %0 ]
  %14 = getelementptr inbounds [50 x [20 x i8]], [50 x [20 x i8]]* %1, i64 0, i64 %11, i64 0
  %15 = call i64 @strlen(i8* noundef nonnull %14) #7
  %16 = trunc i64 %15 to i32
  %17 = icmp slt i32 %13, %16
  br i1 %17, label %18, label %20

18:                                               ; preds = %10
  %19 = call i8* @strcpy(i8* noundef nonnull %5, i8* noundef nonnull %14) #6
  br label %20

20:                                               ; preds = %18, %10
  %21 = phi i32 [ %16, %18 ], [ %13, %10 ]
  %22 = icmp sgt i32 %12, %16
  br i1 %22, label %23, label %25

23:                                               ; preds = %20
  %24 = call i8* @strcpy(i8* noundef nonnull %6, i8* noundef nonnull %14) #6
  br label %25

25:                                               ; preds = %23, %20
  %26 = phi i32 [ %16, %23 ], [ %12, %20 ]
  %27 = add nuw i64 %11, 1
  %28 = getelementptr inbounds [50 x [20 x i8]], [50 x [20 x i8]]* %1, i64 0, i64 %27
  %29 = call i32 (i8*, ...) @__isoc99_scanf(i8* getelementptr inbounds ([3 x i8], [3 x i8]* @.str, i64 0, i64 0), [20 x i8]* nonnull %28)
  %30 = icmp eq i32 %29, -1
  br i1 %30, label %31, label %10, !llvm.loop !5

31:                                               ; preds = %25, %0
  %32 = call i32 @puts(i8* nonnull %5)
  %33 = call i32 (i8*, ...) @printf(i8* nonnull dereferenceable(1) getelementptr inbounds ([3 x i8], [3 x i8]* @.str, i64 0, i64 0), i8* nonnull %6)
  call void @llvm.lifetime.end.p0i8(i64 20, i8* nonnull %6) #6
  call void @llvm.lifetime.end.p0i8(i64 20, i8* nonnull %5) #6
  call void @llvm.lifetime.end.p0i8(i64 1000, i8* nonnull %4) #6
  ret void
}

; Function Attrs: argmemonly mustprogress nofree nosync nounwind willreturn
declare void @llvm.lifetime.start.p0i8(i64 immarg, i8* nocapture) #1

; Function Attrs: nofree nounwind
declare noundef i32 @__isoc99_scanf(i8* nocapture noundef readonly, ...) local_unnamed_addr #2

; Function Attrs: argmemonly mustprogress nofree nounwind readonly willreturn
declare i64 @strlen(i8* nocapture) local_unnamed_addr #3

; Function Attrs: argmemonly mustprogress nofree nounwind willreturn
declare i8* @strcpy(i8* noalias returned writeonly, i8* noalias nocapture readonly) local_unnamed_addr #4

; Function Attrs: nofree nounwind
declare noundef i32 @printf(i8* nocapture noundef readonly, ...) local_unnamed_addr #2

; Function Attrs: argmemonly mustprogress nofree nosync nounwind willreturn
declare void @llvm.lifetime.end.p0i8(i64 immarg, i8* nocapture) #1

; Function Attrs: nofree nounwind
declare noundef i32 @puts(i8* nocapture noundef readonly) local_unnamed_addr #5


!llvm.module.flags = !{!0, !1, !2, !3}
!llvm.ident = !{!4}

!0 = !{i32 1, !"wchar_size", i32 4}
!1 = !{i32 7, !"PIC Level", i32 2}
!2 = !{i32 7, !"PIE Level", i32 2}
!3 = !{i32 7, !"uwtable", i32 1}
!4 = !{!"clang version 13.0.0"}
!5 = distinct !{!5, !6}
!6 = !{!"llvm.loop.mustprogress"}
